target datalayout = "e-m:e-p270:32:32-p271:32:32-p272:64:64-i64:64-i128:128-f80:128-n8:16:32:64-S128"
target triple = "x86_64-pc-linux-gnu"

%struct.stat = type { i64, i64, i64, i32, i32, i32, i32, i64, i64, i64, i64, %struct.timespec, %struct.timespec, %struct.timespec, [3 x i64] }
%struct.timespec = type { i64, i64 }

@_ZN12_GLOBAL__N_19fstat_simE = internal global i32 0, align 4

; Function Attrs: mustprogress nounwind uwtable
define linkonce_odr hidden noundef i64 @_ZNSt14numeric_limitsIlE3maxEv() #0 comdat align 2 {
  ret i64 9223372036854775807
}

; Function Attrs: mustprogress nounwind uwtable
define internal noundef i64 @_ZL13max_file_sizev() #0 {
  %1 = call noundef i64 @_ZNSt14numeric_limitsIlE3maxEv() #16
  ret i64 %1
}

; Function Attrs: mustprogress uwtable
define hidden noundef i32 @_ZN4test5fstatEiP4stat(i32 noundef %0, ptr noundef %1) #1 {
  %3 = alloca i32, align 4
  %4 = alloca ptr, align 8
  %5 = alloca i32, align 4
  store i32 %0, ptr %3, align 4, !tbaa !12
  store ptr %1, ptr %4, align 8, !tbaa !51
  call void @llvm.lifetime.start.p0(i64 4, ptr %5) #16
  %6 = load i32, ptr %3, align 4, !tbaa !12
  %7 = load ptr, ptr %4, align 8, !tbaa !51
  %8 = call i32 @fstat(i32 noundef %6, ptr noundef %7) #16
  store i32 %8, ptr %5, align 4, !tbaa !12
  %9 = load i32, ptr @_ZN12_GLOBAL__N_19fstat_simE, align 4, !tbaa !53
  %10 = icmp eq i32 %9, 1
  br i1 %10, label %11, label %15

11:                                               ; preds = %2
  %12 = call noundef i64 @_ZL13max_file_sizev()
  %13 = load ptr, ptr %4, align 8, !tbaa !51
  %14 = getelementptr inbounds nuw %struct.stat, ptr %13, i32 0, i32 8
  store i64 %12, ptr %14, align 8, !tbaa !48
  br label %15

15:                                               ; preds = %11, %2
  %16 = load i32, ptr %5, align 4, !tbaa !12
  call void @llvm.lifetime.end.p0(i64 4, ptr %5) #16
  ret i32 %16
}