; Function Attrs: mustprogress nofree nounwind uwtable
define hidden noundef i32 @_ZN4test5fstatEiP4stat(i32 noundef %0, ptr noundef captures(none) %1) local_unnamed_addr #1 {
  %3 = tail call i32 @fstat(i32 noundef %0, ptr noundef %1) #29
  %.b = load i1, ptr @_ZN12_GLOBAL__N_19fstat_simE, align 4
  br i1 %.b, label %4, label %6

4:                                                ; preds = %2
  %5 = getelementptr inbounds nuw i8, ptr %1, i64 48
  store i64 9223372036854775807, ptr %5, align 8, !tbaa !33
  br label %6

6:                                                ; preds = %4, %2
  ret i32 %3
}